Certificate:
    Data:
        Version: 3 (0x2)
        Serial Number:
            5d:d6:40:76:e2:86:19:fe:eb:4f:94:20:a6:29:a5:7c:db:d5
    Signature Algorithm: sha256WithRSAEncryption
        Issuer: CN=happy hacker fake CA
        Validity
            Not Before: Aug 15 08:00:00 2012 GMT
            Not After : Aug 15 09:00:00 2012 GMT
        Subject: C=ES, CN=bye2.com
        Subject Public Key Info:
            Public Key Algorithm: rsaEncryption
                Public-Key: (2048 bit)
                Modulus:
                    00:9a:6e:f8:fc:0a:2d:90:31:b3:b1:d5:6c:9f:e5:
                    6e:67:81:47:5b:6f:a5:7f:71:eb:2d:c0:e5:a5:61:
                    ef:06:5d:d6:48:b8:36:4c:91:d7:76:5f:05:e8:6b:
                    48:df:0f:75:0b:0b:3f:f3:04:f8:83:e5:b7:dc:66:
                    01:d1:60:05:58:81:af:cd:33:da:8d:e6:77:8d:0b:
                    78:b7:df:1b:a7:36:ee:68:56:73:f1:00:a8:41:5b:
                    84:3a:e9:3c:08:24:39:fc:27:b3:6e:69:77:96:83:
                    2d:5d:3b:91:f9:1d:5c:3a:e5:41:f6:c1:57:6e:9a:
                    06:bc:62:f6:7d:b0:26:ad:3b:66:39:8f:59:a1:76:
                    8b:42:63:7b:b2:3f:b8:4e:32:91:b5:9b:d5:76:98:
                    8b:45:a6:29:eb:4f:1c:b7:68:77:13:a4:76:37:39:
                    b4:38:77:48:df:9c:ba:d6:36:b0:e3:a5:a2:5c:23:
                    37:d1:6f:d5:db:f2:1a:d1:cd:f9:25:dc:b8:bd:b3:
                    f2:6c:7d:7e:93:86:a3:9a:b9:70:88:5a:ce:f7:ce:
                    80:94:0c:6f:c4:36:48:2a:d6:a1:40:5a:8c:74:7d:
                    e1:12:ec:d3:47:a3:a7:0f:03:25:0e:d9:0b:5d:38:
                    44:f5:74:a6:70:08:5d:61:df:51:2c:2f:21:17:7d:
                    c0:49
                Exponent: 65537 (0x10001)
        X509v3 extensions:
            X509v3 Basic Constraints: 
                CA:FALSE
            Netscape Comment: 
                OpenSSL Generated Certificate
            X509v3 Subject Key Identifier: 
                1D:53:71:A5:6E:3C:60:5C:4C:0F:A7:43:7D:40:2C:CA:6E:AE:0F:3D
            X509v3 Authority Key Identifier: 
                keyid:FB:78:4F:12:F9:60:15:83:2C:9F:17:7F:34:19:B3:2E:36:EA:41:89

    Signature Algorithm: sha256WithRSAEncryption
         87:e9:68:b5:33:c8:ea:5b:76:4c:77:6d:7d:4f:e0:b0:0c:ae:
         7b:7e:fe:a4:78:ad:84:cc:e3:1c:6b:db:2e:3a:1e:1a:e2:a0:
         f8:37:f3:98:ce:91:fc:af:08:7a:ba:40:fa:87:79:8a:ab:3a:
         dc:e6:0f:25:9b:00:0f:b4:45:9b:71:de:33:a9:5a:26:85:ab:
         d8:23:c6:1b:23:8d:2c:09:a3:38:12:05:0d:98:e3:53:cc:a7:
         31:11:e0:0c:4f:a4:82:97:4b:b4:5d:cd:9a:b3:54:96:77:7d:
         f0:49:cb:5b:32:c9:9c:9c:1f:58:91:ff:13:3b:de:22:ec:11:
         02:7c:70:9f:25:22:6c:eb:36:51:73:5c:4a:14:8b:bd:67:0b:
         89:30:30:30:11:d8:c0:de:a9:24:fc:a3:40:e3:03:3a:15:0e:
         b5:61:93:12:02:ef:a6:df:81:f3:64:21:ef:6a:5f:31:ea:d1:
         d8:7d:05:71:74:c7:d6:a1:e3:db:90:e1:59:c0:c5:4d:31:ed:
         a5:d4:4e:ca:ff:d4:5c:6e:4f:87:8a:b6:d4:e8:91:a1:41:3c:
         b0:d8:60:28:b2:45:3f:d3:48:11:15:e6:eb:b8:90:9c:10:f1:
         49:b6:0a:62:84:85:39:f8:35:14:89:1a:3c:7e:9d:37:b4:01:
         b1:5f:aa:83
-----BEGIN CERTIFICATE-----
MIIDRjCCAi6gAwIBAgISXdZAduKGGf7rT5QgpimlfNvVMA0GCSqGSIb3DQEBCwUA
MB8xHTAbBgNVBAMTFGhhcHB5IGhhY2tlciBmYWtlIENBMB4XDTEyMDgxNTA4MDAw
MFoXDTEyMDgxNTA5MDAwMFowIDELMAkGA1UEBhMCRVMxETAPBgNVBAMMCGJ5ZTIu
Y29tMIIBIjANBgkqhkiG9w0BAQEFAAOCAQ8AMIIBCgKCAQEAmm74/AotkDGzsdVs
n+VuZ4FHW2+lf3HrLcDlpWHvBl3WSLg2TJHXdl8F6GtI3w91Cws/8wT4g+W33GYB
0WAFWIGvzTPajeZ3jQt4t98bpzbuaFZz8QCoQVuEOuk8CCQ5/Cezbml3loMtXTuR
+R1cOuVB9sFXbpoGvGL2fbAmrTtmOY9ZoXaLQmN7sj+4TjKRtZvVdpiLRaYp608c
t2h3E6R2Nzm0OHdI35y61jaw46WiXCM30W/V2/Ia0c35Jdy4vbPybH1+k4ajmrlw
iFrO986AlAxvxDZIKtahQFqMdH3hEuzTR6OnDwMlDtkLXThE9XSmcAhdYd9RLC8h
F33ASQIDAQABo3sweTAJBgNVHRMEAjAAMCwGCWCGSAGG+EIBDQQfFh1PcGVuU1NM
IEdlbmVyYXRlZCBDZXJ0aWZpY2F0ZTAdBgNVHQ4EFgQUHVNxpW48YFxMD6dDfUAs
ym6uDz0wHwYDVR0jBBgwFoAU+3hPEvlgFYMsnxd/NBmzLjbqQYkwDQYJKoZIhvcN
AQELBQADggEBAIfpaLUzyOpbdkx3bX1P4LAMrnt+/qR4rYTM4xxr2y46HhrioPg3
85jOkfyvCHq6QPqHeYqrOtzmDyWbAA+0RZtx3jOpWiaFq9gjxhsjjSwJozgSBQ2Y
41PMpzER4AxPpIKXS7RdzZqzVJZ3ffBJy1syyZycH1iR/xM73iLsEQJ8cJ8lImzr
NlFzXEoUi71nC4kwMDAR2MDeqST8o0DjAzoVDrVhkxIC76bfgfNkIe9qXzHq0dh9
BXF0x9ah49uQ4VnAxU0x7aXUTsr/1FxuT4eKttTokaFBPLDYYCiyRT/TSBEV5uu4
kJwQ8Um2CmKEhTn4NRSJGjx+nTe0AbFfqoM=
-----END CERTIFICATE-----
