Certificate:
    Data:
        Version: 3 (0x2)
        Serial Number: 4660 (0x1234)
    Signature Algorithm: sha256WithRSAEncryption
        Issuer: CN=happy hacker fake CA
        Validity
            Not Before: Aug 15 08:00:00 2012 GMT
            Not After : Aug 15 09:00:00 2012 GMT
        Subject: C=ES, ST=Mada, L=ma, O=T, OU=TID, CN=bye3.com
        Subject Public Key Info:
            Public Key Algorithm: rsaEncryption
                Public-Key: (2048 bit)
                Modulus:
                    00:9a:6e:f8:fc:0a:2d:90:31:b3:b1:d5:6c:9f:e5:
                    6e:67:81:47:5b:6f:a5:7f:71:eb:2d:c0:e5:a5:61:
                    ef:06:5d:d6:48:b8:36:4c:91:d7:76:5f:05:e8:6b:
                    48:df:0f:75:0b:0b:3f:f3:04:f8:83:e5:b7:dc:66:
                    01:d1:60:05:58:81:af:cd:33:da:8d:e6:77:8d:0b:
                    78:b7:df:1b:a7:36:ee:68:56:73:f1:00:a8:41:5b:
                    84:3a:e9:3c:08:24:39:fc:27:b3:6e:69:77:96:83:
                    2d:5d:3b:91:f9:1d:5c:3a:e5:41:f6:c1:57:6e:9a:
                    06:bc:62:f6:7d:b0:26:ad:3b:66:39:8f:59:a1:76:
                    8b:42:63:7b:b2:3f:b8:4e:32:91:b5:9b:d5:76:98:
                    8b:45:a6:29:eb:4f:1c:b7:68:77:13:a4:76:37:39:
                    b4:38:77:48:df:9c:ba:d6:36:b0:e3:a5:a2:5c:23:
                    37:d1:6f:d5:db:f2:1a:d1:cd:f9:25:dc:b8:bd:b3:
                    f2:6c:7d:7e:93:86:a3:9a:b9:70:88:5a:ce:f7:ce:
                    80:94:0c:6f:c4:36:48:2a:d6:a1:40:5a:8c:74:7d:
                    e1:12:ec:d3:47:a3:a7:0f:03:25:0e:d9:0b:5d:38:
                    44:f5:74:a6:70:08:5d:61:df:51:2c:2f:21:17:7d:
                    c0:49
                Exponent: 65537 (0x10001)
        X509v3 extensions:
            X509v3 Basic Constraints: 
                CA:FALSE
            Netscape Comment: 
                OpenSSL Generated Certificate
            X509v3 Subject Key Identifier: 
                1D:53:71:A5:6E:3C:60:5C:4C:0F:A7:43:7D:40:2C:CA:6E:AE:0F:3D
            X509v3 Authority Key Identifier: 
                keyid:FB:78:4F:12:F9:60:15:83:2C:9F:17:7F:34:19:B3:2E:36:EA:41:89

    Signature Algorithm: sha256WithRSAEncryption
         bc:fb:0b:87:50:77:18:1b:60:e9:25:2f:bf:eb:c7:7f:88:4e:
         93:7c:7b:03:b0:e3:cc:37:ce:e2:a7:2c:57:31:d8:58:c1:12:
         a8:24:32:78:10:d8:93:e1:55:9b:fc:52:3a:95:b3:8a:02:45:
         21:f8:f2:ee:06:ad:6b:be:cd:ab:80:09:c1:ae:ec:27:d5:1b:
         4a:62:99:64:1e:6b:31:66:c8:0e:e3:42:78:c8:d6:5a:54:47:
         18:c0:d2:8f:3d:8d:6c:53:ab:d8:50:a4:e7:51:43:e8:4d:92:
         91:69:8d:35:68:2d:94:22:22:e8:87:0a:fb:21:11:ca:72:52:
         a1:a8:28:da:d1:fd:1d:d0:d9:e0:77:ec:67:b8:cc:12:8c:ef:
         1b:89:19:77:ca:5e:17:88:30:e4:7b:a8:0f:04:5a:bb:88:13:
         59:56:68:70:e9:39:c8:f2:33:39:02:b9:07:ed:91:70:3c:3b:
         5e:3c:73:2c:2c:77:f8:42:75:c7:43:21:e0:15:6a:a8:43:6a:
         c8:11:b2:d2:68:a9:ad:58:9b:f2:17:ff:c7:80:c3:4f:7a:c9:
         e8:8f:5c:8a:e3:97:db:5e:18:e0:d9:5b:5a:4f:13:52:7c:a4:
         53:58:c7:bc:ae:e1:df:e9:ac:89:d2:48:3b:a4:bc:7c:26:2f:
         0e:a0:54:a6
-----BEGIN CERTIFICATE-----
MIIDbDCCAlSgAwIBAgICEjQwDQYJKoZIhvcNAQELBQAwHzEdMBsGA1UEAxMUaGFw
cHkgaGFja2VyIGZha2UgQ0EwHhcNMTIwODE1MDgwMDAwWhcNMTIwODE1MDkwMDAw
WjBWMQswCQYDVQQGEwJFUzENMAsGA1UECAwETWFkYTELMAkGA1UEBwwCbWExCjAI
BgNVBAoMAVQxDDAKBgNVBAsMA1RJRDERMA8GA1UEAwwIYnllMy5jb20wggEiMA0G
CSqGSIb3DQEBAQUAA4IBDwAwggEKAoIBAQCabvj8Ci2QMbOx1Wyf5W5ngUdbb6V/
cestwOWlYe8GXdZIuDZMkdd2XwXoa0jfD3ULCz/zBPiD5bfcZgHRYAVYga/NM9qN
5neNC3i33xunNu5oVnPxAKhBW4Q66TwIJDn8J7NuaXeWgy1dO5H5HVw65UH2wVdu
mga8YvZ9sCatO2Y5j1mhdotCY3uyP7hOMpG1m9V2mItFpinrTxy3aHcTpHY3ObQ4
d0jfnLrWNrDjpaJcIzfRb9Xb8hrRzfkl3Li9s/JsfX6ThqOauXCIWs73zoCUDG/E
Nkgq1qFAWox0feES7NNHo6cPAyUO2QtdOET1dKZwCF1h31EsLyEXfcBJAgMBAAGj
ezB5MAkGA1UdEwQCMAAwLAYJYIZIAYb4QgENBB8WHU9wZW5TU0wgR2VuZXJhdGVk
IENlcnRpZmljYXRlMB0GA1UdDgQWBBQdU3GlbjxgXEwPp0N9QCzKbq4PPTAfBgNV
HSMEGDAWgBT7eE8S+WAVgyyfF380GbMuNupBiTANBgkqhkiG9w0BAQsFAAOCAQEA
vPsLh1B3GBtg6SUvv+vHf4hOk3x7A7DjzDfO4qcsVzHYWMESqCQyeBDYk+FVm/xS
OpWzigJFIfjy7gata77Nq4AJwa7sJ9UbSmKZZB5rMWbIDuNCeMjWWlRHGMDSjz2N
bFOr2FCk51FD6E2SkWmNNWgtlCIi6IcK+yERynJSoago2tH9HdDZ4HfsZ7jMEozv
G4kZd8peF4gw5HuoDwRau4gTWVZocOk5yPIzOQK5B+2RcDw7XjxzLCx3+EJ1x0Mh
4BVqqENqyBGy0miprVib8hf/x4DDT3rJ6I9ciuOX214Y4NlbWk8TUnykU1jHvK7h
3+msidJIO6S8fCYvDqBUpg==
-----END CERTIFICATE-----
