Certificate:
    Data:
        Version: 3 (0x2)
        Serial Number:
            54:9f:22:ff:ff:ef:07:0a:2a:5b:26:ba:46:76:9c:c8:bd:ee
    Signature Algorithm: sha256WithRSAEncryption
        Issuer: CN=happy hacker fake CA
        Validity
            Not Before: Nov 21 22:28:04 2017 GMT
            Not After : Nov 22 20:20:04 2017 GMT
        Subject: C=ES, CN=bye2.com
        Subject Public Key Info:
            Public Key Algorithm: rsaEncryption
                Public-Key: (2048 bit)
                Modulus:
                    00:9a:6e:f8:fc:0a:2d:90:31:b3:b1:d5:6c:9f:e5:
                    6e:67:81:47:5b:6f:a5:7f:71:eb:2d:c0:e5:a5:61:
                    ef:06:5d:d6:48:b8:36:4c:91:d7:76:5f:05:e8:6b:
                    48:df:0f:75:0b:0b:3f:f3:04:f8:83:e5:b7:dc:66:
                    01:d1:60:05:58:81:af:cd:33:da:8d:e6:77:8d:0b:
                    78:b7:df:1b:a7:36:ee:68:56:73:f1:00:a8:41:5b:
                    84:3a:e9:3c:08:24:39:fc:27:b3:6e:69:77:96:83:
                    2d:5d:3b:91:f9:1d:5c:3a:e5:41:f6:c1:57:6e:9a:
                    06:bc:62:f6:7d:b0:26:ad:3b:66:39:8f:59:a1:76:
                    8b:42:63:7b:b2:3f:b8:4e:32:91:b5:9b:d5:76:98:
                    8b:45:a6:29:eb:4f:1c:b7:68:77:13:a4:76:37:39:
                    b4:38:77:48:df:9c:ba:d6:36:b0:e3:a5:a2:5c:23:
                    37:d1:6f:d5:db:f2:1a:d1:cd:f9:25:dc:b8:bd:b3:
                    f2:6c:7d:7e:93:86:a3:9a:b9:70:88:5a:ce:f7:ce:
                    80:94:0c:6f:c4:36:48:2a:d6:a1:40:5a:8c:74:7d:
                    e1:12:ec:d3:47:a3:a7:0f:03:25:0e:d9:0b:5d:38:
                    44:f5:74:a6:70:08:5d:61:df:51:2c:2f:21:17:7d:
                    c0:49
                Exponent: 65537 (0x10001)
        X509v3 extensions:
            X509v3 Basic Constraints: 
                CA:FALSE
            Netscape Comment: 
                OpenSSL Generated Certificate
            X509v3 Subject Key Identifier: 
                1D:53:71:A5:6E:3C:60:5C:4C:0F:A7:43:7D:40:2C:CA:6E:AE:0F:3D
            X509v3 Authority Key Identifier: 
                keyid:FB:78:4F:12:F9:60:15:83:2C:9F:17:7F:34:19:B3:2E:36:EA:41:89

    Signature Algorithm: sha256WithRSAEncryption
         3b:f5:24:d7:1c:1e:18:8d:47:cc:0f:a8:69:d0:9c:53:56:e0:
         91:ad:ea:e2:c3:a7:7c:af:ba:fa:d6:54:23:71:59:6c:09:04:
         c5:f5:ba:ca:b4:33:ad:36:0d:e0:58:ea:2a:be:2c:cf:b7:38:
         f0:c1:2f:17:68:45:da:93:68:60:4d:3c:8a:bd:a4:05:d1:c7:
         10:27:a5:be:2b:6c:7d:de:fc:69:33:e1:b0:70:11:62:22:4c:
         6d:23:54:24:27:bf:63:0c:82:65:cf:1e:2b:65:7a:ce:32:9e:
         b9:99:74:a0:b4:2f:31:69:f4:1e:56:da:7b:ab:d8:45:d7:2a:
         99:6e:0e:a1:c6:05:f5:b2:6c:df:de:2f:e5:75:73:46:90:3f:
         2d:28:30:04:10:dd:0b:26:9b:59:a3:79:68:59:e7:c3:3b:a6:
         82:de:91:54:c5:c9:37:df:c5:66:d4:c2:53:d1:a0:bf:54:a0:
         96:a1:14:47:59:67:b6:4f:ab:98:1a:62:e2:9d:70:ba:58:6c:
         3a:ea:fa:34:9e:cf:df:df:a6:57:f8:c3:2d:2c:a6:84:1b:f7:
         6a:fe:02:06:00:0c:3d:dd:d5:ef:5e:cc:81:5e:ff:e0:3e:1c:
         b8:e1:f1:7d:0a:01:be:bc:43:e3:ba:3c:5a:e6:a3:ff:34:54:
         c4:e2:f7:47
-----BEGIN CERTIFICATE-----
MIIDRjCCAi6gAwIBAgISVJ8i///vBwoqWya6RnacyL3uMA0GCSqGSIb3DQEBCwUA
MB8xHTAbBgNVBAMTFGhhcHB5IGhhY2tlciBmYWtlIENBMB4XDTE3MTEyMTIyMjgw
NFoXDTE3MTEyMjIwMjAwNFowIDELMAkGA1UEBhMCRVMxETAPBgNVBAMMCGJ5ZTIu
Y29tMIIBIjANBgkqhkiG9w0BAQEFAAOCAQ8AMIIBCgKCAQEAmm74/AotkDGzsdVs
n+VuZ4FHW2+lf3HrLcDlpWHvBl3WSLg2TJHXdl8F6GtI3w91Cws/8wT4g+W33GYB
0WAFWIGvzTPajeZ3jQt4t98bpzbuaFZz8QCoQVuEOuk8CCQ5/Cezbml3loMtXTuR
+R1cOuVB9sFXbpoGvGL2fbAmrTtmOY9ZoXaLQmN7sj+4TjKRtZvVdpiLRaYp608c
t2h3E6R2Nzm0OHdI35y61jaw46WiXCM30W/V2/Ia0c35Jdy4vbPybH1+k4ajmrlw
iFrO986AlAxvxDZIKtahQFqMdH3hEuzTR6OnDwMlDtkLXThE9XSmcAhdYd9RLC8h
F33ASQIDAQABo3sweTAJBgNVHRMEAjAAMCwGCWCGSAGG+EIBDQQfFh1PcGVuU1NM
IEdlbmVyYXRlZCBDZXJ0aWZpY2F0ZTAdBgNVHQ4EFgQUHVNxpW48YFxMD6dDfUAs
ym6uDz0wHwYDVR0jBBgwFoAU+3hPEvlgFYMsnxd/NBmzLjbqQYkwDQYJKoZIhvcN
AQELBQADggEBADv1JNccHhiNR8wPqGnQnFNW4JGt6uLDp3yvuvrWVCNxWWwJBMX1
usq0M602DeBY6iq+LM+3OPDBLxdoRdqTaGBNPIq9pAXRxxAnpb4rbH3e/Gkz4bBw
EWIiTG0jVCQnv2MMgmXPHitles4ynrmZdKC0LzFp9B5W2nur2EXXKpluDqHGBfWy
bN/eL+V1c0aQPy0oMAQQ3Qsmm1mjeWhZ58M7poLekVTFyTffxWbUwlPRoL9UoJah
FEdZZ7ZPq5gaYuKdcLpYbDrq+jSez9/fplf4wy0spoQb92r+AgYADD3d1e9ezIFe
/+A+HLjh8X0KAb68Q+O6PFrmo/80VMTi90c=
-----END CERTIFICATE-----
