Certificate:
    Data:
        Version: 3 (0x2)
        Serial Number:
            5b:3f:1e:4e:db:00:0f:b0:e1:84:4f:59:d3:38:5a:58:26:03
    Signature Algorithm: sha256WithRSAEncryption
        Issuer: CN=happy hacker fake CA
        Validity
            Not Before: Nov 21 22:30:02 2017 GMT
            Not After : Nov 22 20:20:02 2017 GMT
        Subject: C=ES, CN=bye2.com
        Subject Public Key Info:
            Public Key Algorithm: rsaEncryption
                Public-Key: (2048 bit)
                Modulus:
                    00:9a:6e:f8:fc:0a:2d:90:31:b3:b1:d5:6c:9f:e5:
                    6e:67:81:47:5b:6f:a5:7f:71:eb:2d:c0:e5:a5:61:
                    ef:06:5d:d6:48:b8:36:4c:91:d7:76:5f:05:e8:6b:
                    48:df:0f:75:0b:0b:3f:f3:04:f8:83:e5:b7:dc:66:
                    01:d1:60:05:58:81:af:cd:33:da:8d:e6:77:8d:0b:
                    78:b7:df:1b:a7:36:ee:68:56:73:f1:00:a8:41:5b:
                    84:3a:e9:3c:08:24:39:fc:27:b3:6e:69:77:96:83:
                    2d:5d:3b:91:f9:1d:5c:3a:e5:41:f6:c1:57:6e:9a:
                    06:bc:62:f6:7d:b0:26:ad:3b:66:39:8f:59:a1:76:
                    8b:42:63:7b:b2:3f:b8:4e:32:91:b5:9b:d5:76:98:
                    8b:45:a6:29:eb:4f:1c:b7:68:77:13:a4:76:37:39:
                    b4:38:77:48:df:9c:ba:d6:36:b0:e3:a5:a2:5c:23:
                    37:d1:6f:d5:db:f2:1a:d1:cd:f9:25:dc:b8:bd:b3:
                    f2:6c:7d:7e:93:86:a3:9a:b9:70:88:5a:ce:f7:ce:
                    80:94:0c:6f:c4:36:48:2a:d6:a1:40:5a:8c:74:7d:
                    e1:12:ec:d3:47:a3:a7:0f:03:25:0e:d9:0b:5d:38:
                    44:f5:74:a6:70:08:5d:61:df:51:2c:2f:21:17:7d:
                    c0:49
                Exponent: 65537 (0x10001)
        X509v3 extensions:
            X509v3 Basic Constraints: 
                CA:FALSE
            Netscape Comment: 
                OpenSSL Generated Certificate
            X509v3 Subject Key Identifier: 
                1D:53:71:A5:6E:3C:60:5C:4C:0F:A7:43:7D:40:2C:CA:6E:AE:0F:3D
            X509v3 Authority Key Identifier: 
                keyid:FB:78:4F:12:F9:60:15:83:2C:9F:17:7F:34:19:B3:2E:36:EA:41:89

    Signature Algorithm: sha256WithRSAEncryption
         23:9e:64:57:e6:c3:0f:39:a3:aa:42:52:c4:c5:7e:93:94:90:
         1d:ad:5a:53:32:60:3d:c8:13:8b:6d:d5:5d:6b:12:2b:39:b6:
         7a:42:48:89:87:81:37:41:90:0c:2b:ab:e2:67:e1:39:d9:33:
         b4:5b:91:34:23:df:64:46:bb:49:33:2a:83:3c:2c:0f:f5:d4:
         68:72:9c:34:9f:ce:c6:1c:5a:78:3a:f4:b3:7a:bc:20:c7:af:
         ff:94:e9:7e:b0:27:92:8f:b3:d1:f2:a0:a2:a7:98:1c:91:7d:
         23:96:45:83:0f:a7:87:1e:3f:ac:3f:89:cd:6e:e1:0e:a4:1a:
         41:ab:23:a5:e6:1e:79:ea:f4:0a:2b:6b:f5:13:66:6b:ed:0c:
         29:38:0f:a0:a9:e8:fe:02:52:85:e9:c1:0c:88:2b:6d:1f:cf:
         3d:56:37:77:77:bb:d6:72:26:6c:67:8a:f6:0e:b4:a8:c6:2f:
         1e:cb:a8:1c:09:be:a2:69:2a:01:bf:18:b7:72:ad:0f:34:a5:
         87:6a:1e:35:c8:00:f4:ca:74:8a:a4:07:43:1d:16:75:bf:52:
         4f:8d:ba:cf:74:ff:fd:4e:cf:74:36:b6:f2:a6:b3:ee:3f:f9:
         64:6d:0a:6e:05:8d:2b:45:1e:6c:44:a5:1d:88:4a:a1:c1:76:
         dc:ac:d2:a3
-----BEGIN CERTIFICATE-----
MIIDRjCCAi6gAwIBAgISWz8eTtsAD7DhhE9Z0zhaWCYDMA0GCSqGSIb3DQEBCwUA
MB8xHTAbBgNVBAMTFGhhcHB5IGhhY2tlciBmYWtlIENBMB4XDTE3MTEyMTIyMzAw
MloXDTE3MTEyMjIwMjAwMlowIDELMAkGA1UEBhMCRVMxETAPBgNVBAMMCGJ5ZTIu
Y29tMIIBIjANBgkqhkiG9w0BAQEFAAOCAQ8AMIIBCgKCAQEAmm74/AotkDGzsdVs
n+VuZ4FHW2+lf3HrLcDlpWHvBl3WSLg2TJHXdl8F6GtI3w91Cws/8wT4g+W33GYB
0WAFWIGvzTPajeZ3jQt4t98bpzbuaFZz8QCoQVuEOuk8CCQ5/Cezbml3loMtXTuR
+R1cOuVB9sFXbpoGvGL2fbAmrTtmOY9ZoXaLQmN7sj+4TjKRtZvVdpiLRaYp608c
t2h3E6R2Nzm0OHdI35y61jaw46WiXCM30W/V2/Ia0c35Jdy4vbPybH1+k4ajmrlw
iFrO986AlAxvxDZIKtahQFqMdH3hEuzTR6OnDwMlDtkLXThE9XSmcAhdYd9RLC8h
F33ASQIDAQABo3sweTAJBgNVHRMEAjAAMCwGCWCGSAGG+EIBDQQfFh1PcGVuU1NM
IEdlbmVyYXRlZCBDZXJ0aWZpY2F0ZTAdBgNVHQ4EFgQUHVNxpW48YFxMD6dDfUAs
ym6uDz0wHwYDVR0jBBgwFoAU+3hPEvlgFYMsnxd/NBmzLjbqQYkwDQYJKoZIhvcN
AQELBQADggEBACOeZFfmww85o6pCUsTFfpOUkB2tWlMyYD3IE4tt1V1rEis5tnpC
SImHgTdBkAwrq+Jn4TnZM7RbkTQj32RGu0kzKoM8LA/11GhynDSfzsYcWng69LN6
vCDHr/+U6X6wJ5KPs9HyoKKnmByRfSOWRYMPp4ceP6w/ic1u4Q6kGkGrI6XmHnnq
9Aora/UTZmvtDCk4D6Cp6P4CUoXpwQyIK20fzz1WN3d3u9ZyJmxnivYOtKjGLx7L
qBwJvqJpKgG/GLdyrQ80pYdqHjXIAPTKdIqkB0MdFnW/Uk+Nus90//1Oz3Q2tvKm
s+4/+WRtCm4FjStFHmxEpR2ISqHBdtys0qM=
-----END CERTIFICATE-----
