Certificate:
    Data:
        Version: 3 (0x2)
        Serial Number:
            5c:03:64:de:fd:63:a7:b8:c3:99:bd:86:48:93:eb:67:7f:df
    Signature Algorithm: sha256WithRSAEncryption
        Issuer: CN=happy hacker fake CA
        Validity
            Not Before: Aug 15 08:00:00 2012 GMT
            Not After : Aug 15 09:00:00 2012 GMT
        Subject: C=ES, CN=bye2.com
        Subject Public Key Info:
            Public Key Algorithm: rsaEncryption
                Public-Key: (2048 bit)
                Modulus:
                    00:9a:6e:f8:fc:0a:2d:90:31:b3:b1:d5:6c:9f:e5:
                    6e:67:81:47:5b:6f:a5:7f:71:eb:2d:c0:e5:a5:61:
                    ef:06:5d:d6:48:b8:36:4c:91:d7:76:5f:05:e8:6b:
                    48:df:0f:75:0b:0b:3f:f3:04:f8:83:e5:b7:dc:66:
                    01:d1:60:05:58:81:af:cd:33:da:8d:e6:77:8d:0b:
                    78:b7:df:1b:a7:36:ee:68:56:73:f1:00:a8:41:5b:
                    84:3a:e9:3c:08:24:39:fc:27:b3:6e:69:77:96:83:
                    2d:5d:3b:91:f9:1d:5c:3a:e5:41:f6:c1:57:6e:9a:
                    06:bc:62:f6:7d:b0:26:ad:3b:66:39:8f:59:a1:76:
                    8b:42:63:7b:b2:3f:b8:4e:32:91:b5:9b:d5:76:98:
                    8b:45:a6:29:eb:4f:1c:b7:68:77:13:a4:76:37:39:
                    b4:38:77:48:df:9c:ba:d6:36:b0:e3:a5:a2:5c:23:
                    37:d1:6f:d5:db:f2:1a:d1:cd:f9:25:dc:b8:bd:b3:
                    f2:6c:7d:7e:93:86:a3:9a:b9:70:88:5a:ce:f7:ce:
                    80:94:0c:6f:c4:36:48:2a:d6:a1:40:5a:8c:74:7d:
                    e1:12:ec:d3:47:a3:a7:0f:03:25:0e:d9:0b:5d:38:
                    44:f5:74:a6:70:08:5d:61:df:51:2c:2f:21:17:7d:
                    c0:49
                Exponent: 65537 (0x10001)
        X509v3 extensions:
            X509v3 Basic Constraints: 
                CA:FALSE
            Netscape Comment: 
                OpenSSL Generated Certificate
            X509v3 Subject Key Identifier: 
                1D:53:71:A5:6E:3C:60:5C:4C:0F:A7:43:7D:40:2C:CA:6E:AE:0F:3D
            X509v3 Authority Key Identifier: 
                keyid:FB:78:4F:12:F9:60:15:83:2C:9F:17:7F:34:19:B3:2E:36:EA:41:89

    Signature Algorithm: sha256WithRSAEncryption
         a3:c6:3c:9b:c5:cf:42:60:97:b3:00:f8:f2:fa:13:37:6c:3c:
         66:8e:42:86:d8:6d:da:3d:41:37:4b:87:e2:44:9f:5b:48:b5:
         9e:d0:d8:3f:b9:6f:d8:93:57:80:e7:e8:c9:2d:16:f3:32:2e:
         e1:54:ea:de:83:fe:be:cd:35:03:9a:e0:b6:63:1c:f4:f7:7d:
         33:19:f0:3c:b1:30:e0:61:1c:c9:e7:7a:a9:d6:41:4e:10:66:
         45:c6:c0:a4:15:84:5d:36:c2:d1:77:68:52:d0:b6:eb:d3:cc:
         df:21:95:e9:e6:dc:0e:75:ce:82:03:95:bd:fd:c2:16:4f:5a:
         cb:fa:87:c5:65:a1:8f:22:90:60:1c:2d:cd:07:45:36:bf:89:
         1d:e7:87:c4:b2:b1:d0:dd:c2:4d:8d:c9:89:23:3a:50:18:25:
         9c:61:d0:0e:7e:ab:f3:52:7b:fa:9a:4a:a4:1e:02:56:de:21:
         ec:f8:4d:83:38:90:05:56:4b:ec:40:42:42:9c:00:5a:53:a8:
         d8:d8:4c:dc:88:0b:a2:b9:cf:3d:2c:a4:27:6f:3a:da:9f:38:
         a8:a7:80:19:32:e5:a6:1d:08:2d:17:84:10:3f:22:24:e8:a2:
         85:1c:8c:28:eb:8b:3f:3c:8c:3a:64:d3:bc:31:02:b7:5d:73:
         2c:34:e8:23
-----BEGIN CERTIFICATE-----
MIIDRjCCAi6gAwIBAgISXANk3v1jp7jDmb2GSJPrZ3/fMA0GCSqGSIb3DQEBCwUA
MB8xHTAbBgNVBAMTFGhhcHB5IGhhY2tlciBmYWtlIENBMB4XDTEyMDgxNTA4MDAw
MFoXDTEyMDgxNTA5MDAwMFowIDELMAkGA1UEBhMCRVMxETAPBgNVBAMMCGJ5ZTIu
Y29tMIIBIjANBgkqhkiG9w0BAQEFAAOCAQ8AMIIBCgKCAQEAmm74/AotkDGzsdVs
n+VuZ4FHW2+lf3HrLcDlpWHvBl3WSLg2TJHXdl8F6GtI3w91Cws/8wT4g+W33GYB
0WAFWIGvzTPajeZ3jQt4t98bpzbuaFZz8QCoQVuEOuk8CCQ5/Cezbml3loMtXTuR
+R1cOuVB9sFXbpoGvGL2fbAmrTtmOY9ZoXaLQmN7sj+4TjKRtZvVdpiLRaYp608c
t2h3E6R2Nzm0OHdI35y61jaw46WiXCM30W/V2/Ia0c35Jdy4vbPybH1+k4ajmrlw
iFrO986AlAxvxDZIKtahQFqMdH3hEuzTR6OnDwMlDtkLXThE9XSmcAhdYd9RLC8h
F33ASQIDAQABo3sweTAJBgNVHRMEAjAAMCwGCWCGSAGG+EIBDQQfFh1PcGVuU1NM
IEdlbmVyYXRlZCBDZXJ0aWZpY2F0ZTAdBgNVHQ4EFgQUHVNxpW48YFxMD6dDfUAs
ym6uDz0wHwYDVR0jBBgwFoAU+3hPEvlgFYMsnxd/NBmzLjbqQYkwDQYJKoZIhvcN
AQELBQADggEBAKPGPJvFz0Jgl7MA+PL6EzdsPGaOQobYbdo9QTdLh+JEn1tItZ7Q
2D+5b9iTV4Dn6MktFvMyLuFU6t6D/r7NNQOa4LZjHPT3fTMZ8DyxMOBhHMnneqnW
QU4QZkXGwKQVhF02wtF3aFLQtuvTzN8hlenm3A51zoIDlb39whZPWsv6h8VloY8i
kGAcLc0HRTa/iR3nh8SysdDdwk2NyYkjOlAYJZxh0A5+q/NSe/qaSqQeAlbeIez4
TYM4kAVWS+xAQkKcAFpTqNjYTNyIC6K5zz0spCdvOtqfOKingBky5aYdCC0XhBA/
IiToooUcjCjriz88jDpk07wxArddcyw06CM=
-----END CERTIFICATE-----
