Certificate:
    Data:
        Version: 3 (0x2)
        Serial Number:
            87:38:61:b5:aa:dd:f2:4a:6b:b3:56:e7:9a:86:74:ce:d3:94
    Signature Algorithm: sha256WithRSAEncryption
        Issuer: CN=happy hacker fake CA
        Validity
            Not Before: Aug 15 08:00:00 2012 GMT
            Not After : Aug 15 09:00:00 2012 GMT
        Subject: C=ES, CN=bye2.com
        Subject Public Key Info:
            Public Key Algorithm: rsaEncryption
                Public-Key: (2048 bit)
                Modulus:
                    00:9a:6e:f8:fc:0a:2d:90:31:b3:b1:d5:6c:9f:e5:
                    6e:67:81:47:5b:6f:a5:7f:71:eb:2d:c0:e5:a5:61:
                    ef:06:5d:d6:48:b8:36:4c:91:d7:76:5f:05:e8:6b:
                    48:df:0f:75:0b:0b:3f:f3:04:f8:83:e5:b7:dc:66:
                    01:d1:60:05:58:81:af:cd:33:da:8d:e6:77:8d:0b:
                    78:b7:df:1b:a7:36:ee:68:56:73:f1:00:a8:41:5b:
                    84:3a:e9:3c:08:24:39:fc:27:b3:6e:69:77:96:83:
                    2d:5d:3b:91:f9:1d:5c:3a:e5:41:f6:c1:57:6e:9a:
                    06:bc:62:f6:7d:b0:26:ad:3b:66:39:8f:59:a1:76:
                    8b:42:63:7b:b2:3f:b8:4e:32:91:b5:9b:d5:76:98:
                    8b:45:a6:29:eb:4f:1c:b7:68:77:13:a4:76:37:39:
                    b4:38:77:48:df:9c:ba:d6:36:b0:e3:a5:a2:5c:23:
                    37:d1:6f:d5:db:f2:1a:d1:cd:f9:25:dc:b8:bd:b3:
                    f2:6c:7d:7e:93:86:a3:9a:b9:70:88:5a:ce:f7:ce:
                    80:94:0c:6f:c4:36:48:2a:d6:a1:40:5a:8c:74:7d:
                    e1:12:ec:d3:47:a3:a7:0f:03:25:0e:d9:0b:5d:38:
                    44:f5:74:a6:70:08:5d:61:df:51:2c:2f:21:17:7d:
                    c0:49
                Exponent: 65537 (0x10001)
        X509v3 extensions:
            X509v3 Basic Constraints: 
                CA:FALSE
            Netscape Comment: 
                OpenSSL Generated Certificate
            X509v3 Subject Key Identifier: 
                1D:53:71:A5:6E:3C:60:5C:4C:0F:A7:43:7D:40:2C:CA:6E:AE:0F:3D
            X509v3 Authority Key Identifier: 
                keyid:FB:78:4F:12:F9:60:15:83:2C:9F:17:7F:34:19:B3:2E:36:EA:41:89

    Signature Algorithm: sha256WithRSAEncryption
         76:60:e2:c8:d2:ee:74:50:11:61:4a:fa:da:ba:ae:8d:b9:68:
         99:69:ab:d1:99:64:e1:e3:ee:aa:92:32:41:f6:55:75:b7:56:
         ce:94:29:53:c4:64:3c:30:20:93:9e:73:fa:67:9c:49:41:a3:
         0f:e3:9a:92:11:2d:6c:8b:3e:c6:ea:99:0a:0a:6e:86:dd:e4:
         7c:b3:2a:41:69:3c:59:54:e6:c7:79:a0:53:60:79:dd:78:df:
         02:55:97:4c:26:04:a2:8f:38:fd:ca:c4:6b:f8:65:8f:af:1e:
         b9:37:20:95:7f:8d:dd:69:e1:69:bc:cc:ae:5c:32:32:e2:11:
         97:dc:67:33:b0:d8:91:4a:dd:11:64:b1:f5:cd:e9:a3:b9:48:
         01:b8:49:75:4a:6c:ee:67:f1:7b:c7:e2:cd:60:d1:e1:b7:05:
         22:7d:f5:0e:3e:e2:da:f6:02:14:28:ea:48:69:45:96:dc:f3:
         63:c4:52:ed:52:92:48:3a:74:3c:e4:b8:ba:4e:b5:af:9a:af:
         70:93:a9:17:33:cc:c4:9e:10:3d:66:53:c5:30:a3:fe:3c:5a:
         a5:d6:59:ed:ce:0d:fe:5b:3b:75:fd:b2:8a:d7:82:02:e3:8c:
         ab:77:27:b4:7c:ca:2c:9a:4c:11:8b:f4:e3:79:69:21:04:04:
         81:9b:1b:2f
-----BEGIN CERTIFICATE-----
MIIDRzCCAi+gAwIBAgITAIc4YbWq3fJKa7NW55qGdM7TlDANBgkqhkiG9w0BAQsF
ADAfMR0wGwYDVQQDExRoYXBweSBoYWNrZXIgZmFrZSBDQTAeFw0xMjA4MTUwODAw
MDBaFw0xMjA4MTUwOTAwMDBaMCAxCzAJBgNVBAYTAkVTMREwDwYDVQQDDAhieWUy
LmNvbTCCASIwDQYJKoZIhvcNAQEBBQADggEPADCCAQoCggEBAJpu+PwKLZAxs7HV
bJ/lbmeBR1tvpX9x6y3A5aVh7wZd1ki4NkyR13ZfBehrSN8PdQsLP/ME+IPlt9xm
AdFgBViBr80z2o3md40LeLffG6c27mhWc/EAqEFbhDrpPAgkOfwns25pd5aDLV07
kfkdXDrlQfbBV26aBrxi9n2wJq07ZjmPWaF2i0Jje7I/uE4ykbWb1XaYi0WmKetP
HLdodxOkdjc5tDh3SN+cutY2sOOlolwjN9Fv1dvyGtHN+SXcuL2z8mx9fpOGo5q5
cIhazvfOgJQMb8Q2SCrWoUBajHR94RLs00ejpw8DJQ7ZC104RPV0pnAIXWHfUSwv
IRd9wEkCAwEAAaN7MHkwCQYDVR0TBAIwADAsBglghkgBhvhCAQ0EHxYdT3BlblNT
TCBHZW5lcmF0ZWQgQ2VydGlmaWNhdGUwHQYDVR0OBBYEFB1TcaVuPGBcTA+nQ31A
LMpurg89MB8GA1UdIwQYMBaAFPt4TxL5YBWDLJ8XfzQZsy426kGJMA0GCSqGSIb3
DQEBCwUAA4IBAQB2YOLI0u50UBFhSvrauq6NuWiZaavRmWTh4+6qkjJB9lV1t1bO
lClTxGQ8MCCTnnP6Z5xJQaMP45qSES1siz7G6pkKCm6G3eR8sypBaTxZVObHeaBT
YHndeN8CVZdMJgSijzj9ysRr+GWPrx65NyCVf43daeFpvMyuXDIy4hGX3GczsNiR
St0RZLH1zemjuUgBuEl1SmzuZ/F7x+LNYNHhtwUiffUOPuLa9gIUKOpIaUWW3PNj
xFLtUpJIOnQ85Li6TrWvmq9wk6kXM8zEnhA9ZlPFMKP+PFql1lntzg3+Wzt1/bKK
14IC44yrdye0fMosmkwRi/TjeWkhBASBmxsv
-----END CERTIFICATE-----
