Certificate:
    Data:
        Version: 3 (0x2)
        Serial Number:
            a2:f6:d1:4a:af:77:68:4e:23:8a:22:c1:e2:d2:16:10:3e:79
    Signature Algorithm: sha256WithRSAEncryption
        Issuer: CN=happy hacker fake CA
        Validity
            Not Before: Nov 21 22:26:21 2017 GMT
            Not After : Nov 22 20:20:21 2017 GMT
        Subject: C=ES, CN=bye2.com
        Subject Public Key Info:
            Public Key Algorithm: rsaEncryption
                Public-Key: (2048 bit)
                Modulus:
                    00:9a:6e:f8:fc:0a:2d:90:31:b3:b1:d5:6c:9f:e5:
                    6e:67:81:47:5b:6f:a5:7f:71:eb:2d:c0:e5:a5:61:
                    ef:06:5d:d6:48:b8:36:4c:91:d7:76:5f:05:e8:6b:
                    48:df:0f:75:0b:0b:3f:f3:04:f8:83:e5:b7:dc:66:
                    01:d1:60:05:58:81:af:cd:33:da:8d:e6:77:8d:0b:
                    78:b7:df:1b:a7:36:ee:68:56:73:f1:00:a8:41:5b:
                    84:3a:e9:3c:08:24:39:fc:27:b3:6e:69:77:96:83:
                    2d:5d:3b:91:f9:1d:5c:3a:e5:41:f6:c1:57:6e:9a:
                    06:bc:62:f6:7d:b0:26:ad:3b:66:39:8f:59:a1:76:
                    8b:42:63:7b:b2:3f:b8:4e:32:91:b5:9b:d5:76:98:
                    8b:45:a6:29:eb:4f:1c:b7:68:77:13:a4:76:37:39:
                    b4:38:77:48:df:9c:ba:d6:36:b0:e3:a5:a2:5c:23:
                    37:d1:6f:d5:db:f2:1a:d1:cd:f9:25:dc:b8:bd:b3:
                    f2:6c:7d:7e:93:86:a3:9a:b9:70:88:5a:ce:f7:ce:
                    80:94:0c:6f:c4:36:48:2a:d6:a1:40:5a:8c:74:7d:
                    e1:12:ec:d3:47:a3:a7:0f:03:25:0e:d9:0b:5d:38:
                    44:f5:74:a6:70:08:5d:61:df:51:2c:2f:21:17:7d:
                    c0:49
                Exponent: 65537 (0x10001)
        X509v3 extensions:
            X509v3 Basic Constraints: 
                CA:FALSE
            Netscape Comment: 
                OpenSSL Generated Certificate
            X509v3 Subject Key Identifier: 
                1D:53:71:A5:6E:3C:60:5C:4C:0F:A7:43:7D:40:2C:CA:6E:AE:0F:3D
            X509v3 Authority Key Identifier: 
                keyid:FB:78:4F:12:F9:60:15:83:2C:9F:17:7F:34:19:B3:2E:36:EA:41:89

    Signature Algorithm: sha256WithRSAEncryption
         5e:65:d4:97:e3:2a:73:f1:45:26:22:8b:e9:8d:79:e8:57:37:
         95:8e:f7:ec:77:49:1f:2e:ca:da:af:fb:76:b5:7b:cd:8a:85:
         1e:a3:6d:10:ee:72:73:f9:a5:8b:f3:9b:b3:d8:23:7c:e9:33:
         df:36:c6:85:81:b0:ff:78:79:53:5d:ae:2e:d6:75:a0:f6:73:
         90:e8:0b:1c:3d:9c:5e:d1:ef:76:91:2a:0e:ad:1c:f8:92:e1:
         1f:a5:75:db:e0:74:ba:b3:fc:af:3a:20:00:b2:48:41:a8:b3:
         f9:e5:c6:8d:d4:52:17:bd:73:a5:a5:32:b2:dd:58:5a:e6:2f:
         8c:c5:76:08:1c:a0:5c:59:b7:95:68:98:8e:53:e3:bb:b9:5a:
         72:24:08:af:b3:61:b7:a0:66:ae:4d:a8:56:92:ba:33:4f:b9:
         d2:5e:09:23:0c:d7:e0:31:15:6b:fd:72:2d:82:2f:3c:a6:50:
         b3:d9:ba:cb:3b:d1:32:ce:74:1d:de:4c:6c:e5:97:d0:8c:d6:
         dd:1c:2c:1f:61:b4:2a:1f:56:c0:65:17:1c:4c:fd:bc:2e:78:
         10:cd:8e:9d:19:57:b5:4e:9e:b0:b0:3d:15:40:ec:ed:d2:3e:
         9a:9c:73:ca:79:a4:84:c4:36:a4:2c:0d:3c:cf:ef:8a:21:57:
         88:1a:34:14
-----BEGIN CERTIFICATE-----
MIIDRzCCAi+gAwIBAgITAKL20Uqvd2hOI4oiweLSFhA+eTANBgkqhkiG9w0BAQsF
ADAfMR0wGwYDVQQDExRoYXBweSBoYWNrZXIgZmFrZSBDQTAeFw0xNzExMjEyMjI2
MjFaFw0xNzExMjIyMDIwMjFaMCAxCzAJBgNVBAYTAkVTMREwDwYDVQQDDAhieWUy
LmNvbTCCASIwDQYJKoZIhvcNAQEBBQADggEPADCCAQoCggEBAJpu+PwKLZAxs7HV
bJ/lbmeBR1tvpX9x6y3A5aVh7wZd1ki4NkyR13ZfBehrSN8PdQsLP/ME+IPlt9xm
AdFgBViBr80z2o3md40LeLffG6c27mhWc/EAqEFbhDrpPAgkOfwns25pd5aDLV07
kfkdXDrlQfbBV26aBrxi9n2wJq07ZjmPWaF2i0Jje7I/uE4ykbWb1XaYi0WmKetP
HLdodxOkdjc5tDh3SN+cutY2sOOlolwjN9Fv1dvyGtHN+SXcuL2z8mx9fpOGo5q5
cIhazvfOgJQMb8Q2SCrWoUBajHR94RLs00ejpw8DJQ7ZC104RPV0pnAIXWHfUSwv
IRd9wEkCAwEAAaN7MHkwCQYDVR0TBAIwADAsBglghkgBhvhCAQ0EHxYdT3BlblNT
TCBHZW5lcmF0ZWQgQ2VydGlmaWNhdGUwHQYDVR0OBBYEFB1TcaVuPGBcTA+nQ31A
LMpurg89MB8GA1UdIwQYMBaAFPt4TxL5YBWDLJ8XfzQZsy426kGJMA0GCSqGSIb3
DQEBCwUAA4IBAQBeZdSX4ypz8UUmIovpjXnoVzeVjvfsd0kfLsrar/t2tXvNioUe
o20Q7nJz+aWL85uz2CN86TPfNsaFgbD/eHlTXa4u1nWg9nOQ6AscPZxe0e92kSoO
rRz4kuEfpXXb4HS6s/yvOiAAskhBqLP55caN1FIXvXOlpTKy3Vha5i+MxXYIHKBc
WbeVaJiOU+O7uVpyJAivs2G3oGauTahWkrozT7nSXgkjDNfgMRVr/XItgi88plCz
2brLO9EyznQd3kxs5ZfQjNbdHCwfYbQqH1bAZRccTP28LngQzY6dGVe1Tp6wsD0V
QOzt0j6anHPKeaSExDakLA08z++KIVeIGjQU
-----END CERTIFICATE-----
